target datalayout = "e-m:e-p270:32:32-p271:32:32-p272:64:64-i64:64-i128:128-f80:128-n8:16:32:64-S128"
target triple = "x86_64-pc-linux-gnu"

%struct._packet_info = type { ptr, ptr, i32, i32, %struct.nstime_t, %struct.nstime_t, %struct.nstime_t, i8, ptr, ptr, ptr, ptr, %struct._address, %struct._address, %struct._address, %struct._address, %struct._address, %struct._address, i32, ptr, i8, [3 x i8], %struct.anon, i32, i32, i32, i32, ptr, i8, ptr, ptr, i16, i16, i32, i32, i16, i32, i32, ptr, ptr, ptr, i8, i8, i16, i16, i16, i32, i16, i16, ptr, ptr, ptr, ptr, ptr, i32, i32 }
%struct.nstime_t = type { i64, i32 }
%struct._address = type { i32, i32, ptr, ptr }
%struct.anon = type { i8, [3 x i8] }
%struct._gvcp_transaction_t = type { i32, i32, ptr, i32 }

@hf_gvcp_writeregcmd_data_index = internal global i32 0, align 4
@.str.763 = private unnamed_addr constant [36 x i8] c"[Multiple WriteReg Ack] (%d/%d) %s \00", align 1
@.str.764 = private unnamed_addr constant [10 x i8] c"(Success)\00", align 1
@.str.765 = private unnamed_addr constant [9 x i8] c"(Failed)\00", align 1
@.str.766 = private unnamed_addr constant [4 x i8] c"%s \00", align 1
@.str.767 = private unnamed_addr constant [4 x i8] c" %s\00", align 1
@.str.768 = private unnamed_addr constant [32 x i8] c"[Cannot find requesting packet]\00", align 1

; Function Attrs: null_pointer_is_valid sspstrong uwtable
define internal void @dissect_writereg_ack(ptr noundef %0, ptr noundef %1, ptr noundef %2, i32 noundef %3, ptr noundef %4) #0 {
  %6 = alloca ptr, align 8
  %7 = alloca ptr, align 8
  %8 = alloca ptr, align 8
  %9 = alloca i32, align 4
  %10 = alloca ptr, align 8
  %11 = alloca ptr, align 8
  %12 = alloca i16, align 2
  %13 = alloca i32, align 4
  store ptr %0, ptr %6, align 8
  store ptr %1, ptr %7, align 8
  store ptr %2, ptr %8, align 8
  store i32 %3, ptr %9, align 4
  store ptr %4, ptr %10, align 8
  call void @llvm.lifetime.start.p0(i64 8, ptr %11) #7
  store ptr null, ptr %11, align 8
  call void @llvm.lifetime.start.p0(i64 2, ptr %12) #7
  store i16 0, ptr %12, align 2
  %14 = load ptr, ptr %6, align 8
  %15 = icmp ne ptr %14, null
  br i1 %15, label %16, label %23

16:                                               ; preds = %5
  %17 = load ptr, ptr %6, align 8
  %18 = load i32, ptr @hf_gvcp_writeregcmd_data_index, align 4
  %19 = load ptr, ptr %7, align 8
  %20 = load i32, ptr %9, align 4
  %21 = add i32 %20, 2
  %22 = call ptr @proto_tree_add_item(ptr noundef %17, i32 noundef %18, ptr noundef %19, i32 noundef %21, i32 noundef 2, i32 noundef 0)
  store ptr %22, ptr %11, align 8
  br label %23

23:                                               ; preds = %16, %5
  %24 = load ptr, ptr %7, align 8
  %25 = call zeroext i16 @tvb_get_ntohs(ptr noundef %24, i32 noundef 10)
  store i16 %25, ptr %12, align 2
  %26 = load ptr, ptr %10, align 8
  %27 = icmp ne ptr %26, null
  br i1 %27, label %28, label %66

28:                                               ; preds = %23
  call void @llvm.lifetime.start.p0(i64 4, ptr %13) #7
  store i32 0, ptr %13, align 4
  %29 = load ptr, ptr %10, align 8
  %30 = getelementptr inbounds nuw %struct._gvcp_transaction_t, ptr %29, i32 0, i32 3
  %31 = load i32, ptr %30, align 8
  store i32 %31, ptr %13, align 4
  %32 = load i32, ptr %13, align 4
  %33 = icmp sgt i32 %32, 1
  br i1 %33, label %34, label %46

34:                                               ; preds = %28
  %35 = load ptr, ptr %8, align 8
  %36 = getelementptr inbounds nuw %struct._packet_info, ptr %35, i32 0, i32 1
  %37 = load ptr, ptr %36, align 8
  %38 = load i16, ptr %12, align 2
  %39 = zext i16 %38 to i32
  %40 = load i32, ptr %13, align 4
  %41 = load i16, ptr %12, align 2
  %42 = zext i16 %41 to i32
  %43 = load i32, ptr %13, align 4
  %44 = icmp eq i32 %42, %43
  %45 = select i1 %44, ptr @.str.764, ptr @.str.765
  call void (ptr, i32, ptr, ...) @col_append_fstr(ptr noundef %37, i32 noundef 25, ptr noundef @.str.763, i32 noundef %39, i32 noundef %40, ptr noundef %45)
  br label %55

46:                                               ; preds = %28
  %47 = load ptr, ptr %8, align 8
  %48 = getelementptr inbounds nuw %struct._packet_info, ptr %47, i32 0, i32 1
  %49 = load ptr, ptr %48, align 8
  %50 = load i16, ptr %12, align 2
  %51 = zext i16 %50 to i32
  %52 = load i32, ptr %13, align 4
  %53 = icmp eq i32 %51, %52
  %54 = select i1 %53, ptr @.str.764, ptr @.str.765
  call void (ptr, i32, ptr, ...) @col_append_fstr(ptr noundef %49, i32 noundef 25, ptr noundef @.str.766, ptr noundef %54)
  br label %55

55:                                               ; preds = %46, %34
  %56 = load ptr, ptr %6, align 8
  %57 = icmp ne ptr %56, null
  br i1 %57, label %58, label %65

58:                                               ; preds = %55
  %59 = load ptr, ptr %11, align 8
  %60 = load i16, ptr %12, align 2
  %61 = zext i16 %60 to i32
  %62 = load i32, ptr %13, align 4
  %63 = icmp eq i32 %61, %62
  %64 = select i1 %63, ptr @.str.764, ptr @.str.765
  call void (ptr, ptr, ...) @proto_item_append_text(ptr noundef %59, ptr noundef @.str.767, ptr noundef %64)
  br label %65

65:                                               ; preds = %58, %55
  call void @llvm.lifetime.end.p0(i64 4, ptr %13) #7
  br label %70

66:                                               ; preds = %23
  %67 = load ptr, ptr %8, align 8
  %68 = getelementptr inbounds nuw %struct._packet_info, ptr %67, i32 0, i32 1
  %69 = load ptr, ptr %68, align 8
  call void @col_append_str(ptr noundef %69, i32 noundef 25, ptr noundef @.str.768)
  br label %70

70:                                               ; preds = %66, %65
  call void @llvm.lifetime.end.p0(i64 2, ptr %12) #7
  call void @llvm.lifetime.end.p0(i64 8, ptr %11) #7
  ret void
}