; Function Attrs: null_pointer_is_valid sspstrong uwtable
define internal fastcc void @dissect_writereg_ack(ptr noundef %0, ptr noundef %1, ptr noundef readonly captures(none) %2, ptr noundef readonly captures(address_is_null) %3) unnamed_addr #0 {
  %.not = icmp eq ptr %0, null
  br i1 %.not, label %8, label %5

5:                                                ; preds = %4
  %6 = load i32, ptr @hf_gvcp_writeregcmd_data_index, align 4
  %7 = tail call ptr @proto_tree_add_item(ptr noundef nonnull %0, i32 noundef %6, ptr noundef %1, i32 noundef 10, i32 noundef 2, i32 noundef 0)
  br label %8

8:                                                ; preds = %5, %4
  %.0 = phi ptr [ %7, %5 ], [ null, %4 ]
  %9 = tail call zeroext i16 @tvb_get_ntohs(ptr noundef %1, i32 noundef 10)
  %.not23 = icmp eq ptr %3, null
  br i1 %.not23, label %26, label %10

10:                                               ; preds = %8
  %11 = getelementptr inbounds nuw i8, ptr %3, i64 16
  %12 = load i32, ptr %11, align 8
  %13 = icmp sgt i32 %12, 1
  %14 = getelementptr inbounds nuw i8, ptr %2, i64 8
  %15 = load ptr, ptr %14, align 8
  %16 = zext i16 %9 to i32
  %17 = icmp eq i32 %12, %16
  %18 = select i1 %17, ptr @.str.764, ptr @.str.765
  br i1 %13, label %19, label %20

19:                                               ; preds = %10
  tail call void (ptr, i32, ptr, ...) @col_append_fstr(ptr noundef %15, i32 noundef 25, ptr noundef nonnull @.str.763, i32 noundef %16, i32 noundef %12, ptr noundef nonnull %18)
  br label %21

20:                                               ; preds = %10
  tail call void (ptr, i32, ptr, ...) @col_append_fstr(ptr noundef %15, i32 noundef 25, ptr noundef nonnull @.str.766, ptr noundef nonnull %18)
  br label %21

21:                                               ; preds = %20, %19
  br i1 %.not, label %29, label %22

22:                                               ; preds = %21
  %23 = zext i16 %9 to i32
  %24 = icmp eq i32 %12, %23
  %25 = select i1 %24, ptr @.str.764, ptr @.str.765
  tail call void (ptr, ptr, ...) @proto_item_append_text(ptr noundef %.0, ptr noundef nonnull @.str.767, ptr noundef nonnull %25)
  br label %29

26:                                               ; preds = %8
  %27 = getelementptr inbounds nuw i8, ptr %2, i64 8
  %28 = load ptr, ptr %27, align 8
  tail call void @col_append_str(ptr noundef %28, i32 noundef 25, ptr noundef nonnull @.str.768)
  br label %29

29:                                               ; preds = %21, %22, %26
  ret void
}